; Function Attrs: mustprogress nofree norecurse nosync nounwind willreturn memory(read, inaccessiblemem: none) uwtable
define internal fastcc noundef zeroext i1 @_ZL38canSelectOperandBeMappingIntoPredBlockPKN4llvm5ValueERKNS_10SelectInstE(ptr nocapture noundef readonly %0, ptr nocapture noundef nonnull readonly align 8 dereferenceable(72) %1) unnamed_addr #5 {
  %3 = load i8, ptr %0, align 8
  %4 = icmp ult i8 %3, 29
  br i1 %4, label %23, label %5

5:                                                ; preds = %2
  %6 = getelementptr inbounds i8, ptr %1, i64 -96
  %7 = load ptr, ptr %6, align 8
  %.not = icmp eq i8 %3, 84
  br i1 %.not, label %8, label %._crit_edge

._crit_edge:                                      ; preds = %5
  %.phi.trans.insert = getelementptr inbounds i8, ptr %7, i64 40
  %.pre = load ptr, ptr %.phi.trans.insert, align 8
  br label %14

8:                                                ; preds = %5
  %9 = getelementptr inbounds i8, ptr %0, i64 40
  %10 = load ptr, ptr %9, align 8
  %11 = getelementptr inbounds i8, ptr %7, i64 40
  %12 = load ptr, ptr %11, align 8
  %13 = icmp eq ptr %10, %12
  br i1 %13, label %23, label %14

14:                                               ; preds = %._crit_edge, %8
  %15 = phi ptr [ %.pre, %._crit_edge ], [ %12, %8 ]
  %16 = getelementptr inbounds i8, ptr %1, i64 40
  %17 = load ptr, ptr %16, align 8
  %18 = icmp eq ptr %17, %15
  br i1 %18, label %19, label %22

19:                                               ; preds = %14
  %20 = getelementptr inbounds i8, ptr %0, i64 40
  %21 = load ptr, ptr %20, align 8
  %.not15 = icmp eq ptr %21, %15
  br i1 %.not15, label %22, label %23

22:                                               ; preds = %19, %14
  br label %23

23:                                               ; preds = %19, %8, %2, %22
  %.0 = phi i1 [ false, %22 ], [ true, %2 ], [ true, %8 ], [ true, %19 ]
  ret i1 %.0
}